target datalayout = "e-m:e-p270:32:32-p271:32:32-p272:64:64-i64:64-i128:128-f80:128-n8:16:32:64-S128"
target triple = "x86_64-pc-linux-gnu"

%struct._funnel_packet_menu_t = type { ptr, ptr, ptr, ptr, i8, ptr }

@registered_packet_menus = internal global ptr null, align 8
@packet_menus_modified = internal global i8 0, align 1

; Function Attrs: nounwind null_pointer_is_valid sspstrong uwtable
define internal void @funnel_insert_packet_menu(ptr noundef %0, ptr noundef %1) #0 {
  %3 = alloca ptr, align 8
  %4 = alloca ptr, align 8
  %5 = alloca ptr, align 8
  store ptr %0, ptr %3, align 8
  store ptr %1, ptr %4, align 8
  %6 = load ptr, ptr %3, align 8
  %7 = load ptr, ptr %6, align 8
  %8 = icmp ne ptr %7, null
  br i1 %8, label %12, label %9

9:                                                ; preds = %2
  %10 = load ptr, ptr %4, align 8
  %11 = load ptr, ptr %3, align 8
  store ptr %10, ptr %11, align 8
  br label %29

12:                                               ; preds = %2
  call void @llvm.lifetime.start.p0(i64 8, ptr %5) #8
  %13 = load ptr, ptr %3, align 8
  %14 = load ptr, ptr %13, align 8
  store ptr %14, ptr %5, align 8
  br label %15

15:                                               ; preds = %21, %12
  %16 = load ptr, ptr %5, align 8
  %17 = getelementptr inbounds nuw %struct._funnel_packet_menu_t, ptr %16, i32 0, i32 5
  %18 = load ptr, ptr %17, align 8
  %19 = icmp ne ptr %18, null
  br i1 %19, label %20, label %25

20:                                               ; preds = %15
  br label %21

21:                                               ; preds = %20
  %22 = load ptr, ptr %5, align 8
  %23 = getelementptr inbounds nuw %struct._funnel_packet_menu_t, ptr %22, i32 0, i32 5
  %24 = load ptr, ptr %23, align 8
  store ptr %24, ptr %5, align 8
  br label %15, !llvm.loop !16

25:                                               ; preds = %15
  %26 = load ptr, ptr %4, align 8
  %27 = load ptr, ptr %5, align 8
  %28 = getelementptr inbounds nuw %struct._funnel_packet_menu_t, ptr %27, i32 0, i32 5
  store ptr %26, ptr %28, align 8
  call void @llvm.lifetime.end.p0(i64 8, ptr %5) #8
  br label %29

29:                                               ; preds = %25, %9
  ret void
}

; Function Attrs: null_pointer_is_valid sspstrong uwtable
define void @funnel_register_packet_menu(ptr noundef %0, ptr noundef %1, ptr noundef %2, ptr noundef %3, i1 noundef zeroext %4) #1 {
  %6 = alloca ptr, align 8
  %7 = alloca ptr, align 8
  %8 = alloca ptr, align 8
  %9 = alloca ptr, align 8
  %10 = alloca i8, align 1
  %11 = alloca ptr, align 8
  %12 = alloca i64, align 8
  %13 = alloca i64, align 8
  %14 = alloca ptr, align 8
  %15 = alloca ptr, align 8
  store ptr %0, ptr %6, align 8
  store ptr %1, ptr %7, align 8
  store ptr %2, ptr %8, align 8
  store ptr %3, ptr %9, align 8
  %16 = zext i1 %4 to i8
  store i8 %16, ptr %10, align 1
  call void @llvm.lifetime.start.p0(i64 8, ptr %11) #8
  call void @llvm.lifetime.start.p0(i64 8, ptr %12) #8
  store i64 1, ptr %12, align 8
  call void @llvm.lifetime.start.p0(i64 8, ptr %13) #8
  store i64 48, ptr %13, align 8
  call void @llvm.lifetime.start.p0(i64 8, ptr %14) #8
  %17 = load i64, ptr %13, align 8
  %18 = icmp eq i64 %17, 1
  br i1 %18, label %19, label %22

19:                                               ; preds = %5
  %20 = load i64, ptr %12, align 8
  %21 = call noalias ptr @g_malloc0(i64 noundef %20) #9
  store ptr %21, ptr %14, align 8
  br label %43

22:                                               ; preds = %5
  %23 = load i64, ptr %12, align 8
  %24 = call i1 @llvm.is.constant.i64(i64 %23)
  br i1 %24, label %25, label %38

25:                                               ; preds = %22
  %26 = load i64, ptr %13, align 8
  %27 = icmp eq i64 %26, 0
  br i1 %27, label %33, label %28

28:                                               ; preds = %25
  %29 = load i64, ptr %12, align 8
  %30 = load i64, ptr %13, align 8
  %31 = udiv i64 -1, %30
  %32 = icmp ule i64 %29, %31
  br i1 %32, label %33, label %38

33:                                               ; preds = %28, %25
  %34 = load i64, ptr %12, align 8
  %35 = load i64, ptr %13, align 8
  %36 = mul i64 %34, %35
  %37 = call noalias ptr @g_malloc0(i64 noundef %36) #9
  store ptr %37, ptr %14, align 8
  br label %42

38:                                               ; preds = %28, %22
  %39 = load i64, ptr %12, align 8
  %40 = load i64, ptr %13, align 8
  %41 = call noalias ptr @g_malloc0_n(i64 noundef %39, i64 noundef %40) #10
  store ptr %41, ptr %14, align 8
  br label %42

42:                                               ; preds = %38, %33
  br label %43

43:                                               ; preds = %42, %19
  %44 = load ptr, ptr %14, align 8
  store ptr %44, ptr %15, align 8
  call void @llvm.lifetime.end.p0(i64 8, ptr %14) #8
  call void @llvm.lifetime.end.p0(i64 8, ptr %13) #8
  call void @llvm.lifetime.end.p0(i64 8, ptr %12) #8
  %45 = load ptr, ptr %15, align 8
  store ptr %45, ptr %11, align 8
  %46 = load ptr, ptr %6, align 8
  %47 = call noalias ptr @g_strdup(ptr noundef %46)
  %48 = load ptr, ptr %11, align 8
  %49 = getelementptr inbounds nuw %struct._funnel_packet_menu_t, ptr %48, i32 0, i32 0
  store ptr %47, ptr %49, align 8
  %50 = load ptr, ptr %7, align 8
  %51 = call noalias ptr @g_strdup(ptr noundef %50)
  %52 = load ptr, ptr %11, align 8
  %53 = getelementptr inbounds nuw %struct._funnel_packet_menu_t, ptr %52, i32 0, i32 1
  store ptr %51, ptr %53, align 8
  %54 = load ptr, ptr %8, align 8
  %55 = load ptr, ptr %11, align 8
  %56 = getelementptr inbounds nuw %struct._funnel_packet_menu_t, ptr %55, i32 0, i32 2
  store ptr %54, ptr %56, align 8
  %57 = load ptr, ptr %9, align 8
  %58 = load ptr, ptr %11, align 8
  %59 = getelementptr inbounds nuw %struct._funnel_packet_menu_t, ptr %58, i32 0, i32 3
  store ptr %57, ptr %59, align 8
  %60 = load i8, ptr %10, align 1, !range !6, !noundef !7
  %61 = trunc i8 %60 to i1
  %62 = load ptr, ptr %11, align 8
  %63 = getelementptr inbounds nuw %struct._funnel_packet_menu_t, ptr %62, i32 0, i32 4
  %64 = zext i1 %61 to i8
  store i8 %64, ptr %63, align 8
  %65 = load ptr, ptr %11, align 8
  %66 = getelementptr inbounds nuw %struct._funnel_packet_menu_t, ptr %65, i32 0, i32 5
  store ptr null, ptr %66, align 8
  %67 = load ptr, ptr %11, align 8
  call void @funnel_insert_packet_menu(ptr noundef @registered_packet_menus, ptr noundef %67)
  store i8 1, ptr @packet_menus_modified, align 1
  call void @llvm.lifetime.end.p0(i64 8, ptr %11) #8
  ret void
}