; Function Attrs: null_pointer_is_valid sspstrong uwtable
define void @funnel_register_packet_menu(ptr noundef %0, ptr noundef %1, ptr noundef %2, ptr noundef %3, i1 noundef zeroext %4) local_unnamed_addr #2 {
  %6 = tail call noalias dereferenceable_or_null(48) ptr @g_malloc0(i64 noundef 48) #6
  %7 = zext i1 %4 to i8
  %8 = tail call noalias ptr @g_strdup(ptr noundef %0)
  store ptr %8, ptr %6, align 8
  %9 = tail call noalias ptr @g_strdup(ptr noundef %1)
  %10 = getelementptr inbounds nuw i8, ptr %6, i64 8
  store ptr %9, ptr %10, align 8
  %11 = getelementptr inbounds nuw i8, ptr %6, i64 16
  store ptr %2, ptr %11, align 8
  %12 = getelementptr inbounds nuw i8, ptr %6, i64 24
  store ptr %3, ptr %12, align 8
  %13 = getelementptr inbounds nuw i8, ptr %6, i64 32
  store i8 %7, ptr %13, align 8
  %14 = getelementptr inbounds nuw i8, ptr %6, i64 40
  store ptr null, ptr %14, align 8
  %15 = load ptr, ptr @registered_packet_menus, align 8
  %.not.i = icmp eq ptr %15, null
  br i1 %.not.i, label %16, label %.preheader.i

16:                                               ; preds = %5
  store ptr %6, ptr @registered_packet_menus, align 8
  br label %funnel_insert_packet_menu.exit

.preheader.i:                                     ; preds = %5, %.preheader.i
  %.0.i = phi ptr [ %18, %.preheader.i ], [ %15, %5 ]
  %17 = getelementptr inbounds nuw i8, ptr %.0.i, i64 40
  %18 = load ptr, ptr %17, align 8
  %.not10.i = icmp eq ptr %18, null
  br i1 %.not10.i, label %19, label %.preheader.i, !llvm.loop !16

19:                                               ; preds = %.preheader.i
  %20 = getelementptr inbounds nuw i8, ptr %.0.i, i64 40
  store ptr %6, ptr %20, align 8
  br label %funnel_insert_packet_menu.exit

funnel_insert_packet_menu.exit:                   ; preds = %16, %19
  store i1 true, ptr @packet_menus_modified, align 1
  ret void
}